target datalayout = "e-m:e-p270:32:32-p271:32:32-p272:64:64-i64:64-i128:128-f80:128-n8:16:32:64-S128"
target triple = "x86_64-pc-linux-gnu"

%struct._mod = type { i32, %union.anon.6 }
%union.anon.6 = type { %struct.anon.7 }
%struct.anon.7 = type { ptr, ptr }
%struct.anon.8 = type { ptr }

; Function Attrs: nounwind uwtable
define hidden ptr @_PyAST_Interactive(ptr noundef %0, ptr noundef %1) #0 {
  %3 = alloca ptr, align 8
  %4 = alloca ptr, align 8
  %5 = alloca ptr, align 8
  %6 = alloca ptr, align 8
  %7 = alloca i32, align 4
  store ptr %0, ptr %4, align 8, !tbaa !26
  store ptr %1, ptr %5, align 8, !tbaa !24
  call void @llvm.lifetime.start.p0(i64 8, ptr %6) #8
  %8 = load ptr, ptr %5, align 8, !tbaa !24
  %9 = call ptr @_PyArena_Malloc(ptr noundef %8, i64 noundef 24)
  store ptr %9, ptr %6, align 8, !tbaa !30
  %10 = load ptr, ptr %6, align 8, !tbaa !30
  %11 = icmp ne ptr %10, null
  br i1 %11, label %13, label %12

12:                                               ; preds = %2
  store ptr null, ptr %3, align 8
  store i32 1, ptr %7, align 4
  br label %21

13:                                               ; preds = %2
  %14 = load ptr, ptr %6, align 8, !tbaa !30
  %15 = getelementptr inbounds nuw %struct._mod, ptr %14, i32 0, i32 0
  store i32 2, ptr %15, align 8, !tbaa !32
  %16 = load ptr, ptr %4, align 8, !tbaa !26
  %17 = load ptr, ptr %6, align 8, !tbaa !30
  %18 = getelementptr inbounds nuw %struct._mod, ptr %17, i32 0, i32 1
  %19 = getelementptr inbounds nuw %struct.anon.8, ptr %18, i32 0, i32 0
  store ptr %16, ptr %19, align 8, !tbaa !21
  %20 = load ptr, ptr %6, align 8, !tbaa !30
  store ptr %20, ptr %3, align 8
  store i32 1, ptr %7, align 4
  br label %21

21:                                               ; preds = %13, %12
  call void @llvm.lifetime.end.p0(i64 8, ptr %6) #8
  %22 = load ptr, ptr %3, align 8
  ret ptr %22
}