; Function Attrs: nounwind uwtable
define hidden ptr @_PyAST_Interactive(ptr noundef %0, ptr noundef %1) local_unnamed_addr #0 {
  %3 = tail call ptr @_PyArena_Malloc(ptr noundef %1, i64 noundef 24) #8
  %.not = icmp eq ptr %3, null
  br i1 %.not, label %6, label %4

4:                                                ; preds = %2
  store i32 2, ptr %3, align 8, !tbaa !18
  %5 = getelementptr inbounds nuw i8, ptr %3, i64 8
  store ptr %0, ptr %5, align 8, !tbaa !9
  br label %6

6:                                                ; preds = %2, %4
  ret ptr %3
}